target datalayout = "e-m:e-p270:32:32-p271:32:32-p272:64:64-i64:64-i128:128-f80:128-n8:16:32:64-S128"
target triple = "x86_64-pc-linux-gnu"

%"class.cv::Mat" = type { i32, i32, i32, i32, ptr, ptr, ptr, ptr, ptr, ptr, %"struct.cv::MatSize", %"struct.cv::MatStep" }
%"struct.cv::MatSize" = type { ptr }
%"struct.cv::MatStep" = type { ptr, [2 x i64] }
%"class.cv::Size_" = type { i32, i32 }
%"class.cv::_InputArray" = type { i32, ptr, %"class.cv::Size_" }
%"class.cv::_OutputArray" = type { %"class.cv::_InputArray" }

; Function Attrs: inlinehint mustprogress nounwind uwtable
define linkonce_odr hidden void @_ZN2cv5Size_IiEC2Ev(ptr noundef nonnull align 4 dereferenceable(8) %0) unnamed_addr #5 comdat align 2 {
  %2 = alloca ptr, align 8
  store ptr %0, ptr %2, align 8, !tbaa !38
  %3 = load ptr, ptr %2, align 8
  %4 = getelementptr inbounds nuw %"class.cv::Size_", ptr %3, i32 0, i32 0
  store i32 0, ptr %4, align 4, !tbaa !40
  %5 = getelementptr inbounds nuw %"class.cv::Size_", ptr %3, i32 0, i32 1
  store i32 0, ptr %5, align 4, !tbaa !41
  ret void
}

; Function Attrs: inlinehint mustprogress nounwind uwtable
define linkonce_odr hidden void @_ZN2cv11_InputArray4initEiPKv(ptr noundef nonnull align 8 dereferenceable(24) %0, i32 noundef %1, ptr noundef %2) #5 comdat align 2 {
  %4 = alloca ptr, align 8
  %5 = alloca i32, align 4
  %6 = alloca ptr, align 8
  store ptr %0, ptr %4, align 8, !tbaa !20
  store i32 %1, ptr %5, align 4, !tbaa !34
  store ptr %2, ptr %6, align 8, !tbaa !105
  %7 = load ptr, ptr %4, align 8
  %8 = load i32, ptr %5, align 4, !tbaa !34
  %9 = getelementptr inbounds nuw %"class.cv::_InputArray", ptr %7, i32 0, i32 0
  store i32 %8, ptr %9, align 8, !tbaa !106
  %10 = load ptr, ptr %6, align 8, !tbaa !105
  %11 = getelementptr inbounds nuw %"class.cv::_InputArray", ptr %7, i32 0, i32 1
  store ptr %10, ptr %11, align 8, !tbaa !35
  ret void
}

; Function Attrs: inlinehint mustprogress uwtable
define linkonce_odr hidden void @_ZN2cv11_InputArrayC2Ev(ptr noundef nonnull align 8 dereferenceable(24) %0) unnamed_addr #10 comdat align 2 {
  %2 = alloca ptr, align 8
  store ptr %0, ptr %2, align 8, !tbaa !20
  %3 = load ptr, ptr %2, align 8
  %4 = getelementptr inbounds nuw %"class.cv::_InputArray", ptr %3, i32 0, i32 2
  call void @_ZN2cv5Size_IiEC2Ev(ptr noundef nonnull align 4 dereferenceable(8) %4)
  call void @_ZN2cv11_InputArray4initEiPKv(ptr noundef nonnull align 8 dereferenceable(24) %3, i32 noundef 0, ptr noundef null)
  ret void
}

; Function Attrs: inlinehint mustprogress nounwind uwtable
define linkonce_odr hidden void @_ZN2cv11_InputArrayD2Ev(ptr noundef nonnull align 8 dereferenceable(24) %0) unnamed_addr #5 comdat align 2 {
  %2 = alloca ptr, align 8
  store ptr %0, ptr %2, align 8, !tbaa !20
  ret void
}

; Function Attrs: inlinehint mustprogress uwtable
define linkonce_odr hidden void @_ZN2cv12_OutputArrayC2ERNS_3MatE(ptr noundef nonnull align 8 dereferenceable(24) %0, ptr noundef nonnull align 8 dereferenceable(96) %1) unnamed_addr #10 comdat align 2 personality ptr @__gxx_personality_v0 {
  %3 = alloca ptr, align 8
  %4 = alloca ptr, align 8
  %5 = alloca ptr, align 8
  %6 = alloca i32, align 4
  store ptr %0, ptr %3, align 8, !tbaa !22
  store ptr %1, ptr %4, align 8, !tbaa !42
  %7 = load ptr, ptr %3, align 8
  call void @_ZN2cv11_InputArrayC2Ev(ptr noundef nonnull align 8 dereferenceable(24) %7)
  %8 = load ptr, ptr %4, align 8, !tbaa !42
  invoke void @_ZN2cv11_InputArray4initEiPKv(ptr noundef nonnull align 8 dereferenceable(24) %7, i32 noundef 33619968, ptr noundef %8)
          to label %9 unwind label %10

9:                                                ; preds = %2
  ret void

10:                                               ; preds = %2
  %11 = landingpad { ptr, i32 }
          cleanup
  %12 = extractvalue { ptr, i32 } %11, 0
  store ptr %12, ptr %5, align 8
  %13 = extractvalue { ptr, i32 } %11, 1
  store i32 %13, ptr %6, align 4
  call void @_ZN2cv11_InputArrayD2Ev(ptr noundef nonnull align 8 dereferenceable(24) %7) #3
  br label %14

14:                                               ; preds = %10
  %15 = load ptr, ptr %5, align 8
  %16 = load i32, ptr %6, align 4
  %17 = insertvalue { ptr, i32 } poison, ptr %15, 0
  %18 = insertvalue { ptr, i32 } %17, i32 %16, 1
  resume { ptr, i32 } %18
}

; Function Attrs: inlinehint mustprogress nounwind uwtable
define linkonce_odr hidden noundef nonnull align 1 dereferenceable(1) ptr @_ZN2cv3Mat2atIhEERT_ii(ptr noundef nonnull align 8 dereferenceable(96) %0, i32 noundef %1, i32 noundef %2) #5 comdat align 2 {
  %4 = alloca ptr, align 8
  %5 = alloca i32, align 4
  %6 = alloca i32, align 4
  store ptr %0, ptr %4, align 8, !tbaa !42
  store i32 %1, ptr %5, align 4, !tbaa !34
  store i32 %2, ptr %6, align 4, !tbaa !34
  %7 = load ptr, ptr %4, align 8
  %8 = getelementptr inbounds nuw %"class.cv::Mat", ptr %7, i32 0, i32 4
  %9 = load ptr, ptr %8, align 8, !tbaa !84
  %10 = getelementptr inbounds nuw %"class.cv::Mat", ptr %7, i32 0, i32 11
  %11 = getelementptr inbounds nuw %"struct.cv::MatStep", ptr %10, i32 0, i32 0
  %12 = load ptr, ptr %11, align 8, !tbaa !85
  %13 = getelementptr inbounds i64, ptr %12, i64 0
  %14 = load i64, ptr %13, align 8, !tbaa !86
  %15 = load i32, ptr %5, align 4, !tbaa !34
  %16 = sext i32 %15 to i64
  %17 = mul i64 %14, %16
  %18 = getelementptr inbounds nuw i8, ptr %9, i64 %17
  %19 = load i32, ptr %6, align 4, !tbaa !34
  %20 = sext i32 %19 to i64
  %21 = getelementptr inbounds i8, ptr %18, i64 %20
  ret ptr %21
}

; Function Attrs: inlinehint mustprogress nounwind uwtable
define linkonce_odr hidden void @_ZN2cv5Size_IiEC2Eii(ptr noundef nonnull align 4 dereferenceable(8) %0, i32 noundef %1, i32 noundef %2) unnamed_addr #5 comdat align 2 {
  %4 = alloca ptr, align 8
  %5 = alloca i32, align 4
  %6 = alloca i32, align 4
  store ptr %0, ptr %4, align 8, !tbaa !38
  store i32 %1, ptr %5, align 4, !tbaa !34
  store i32 %2, ptr %6, align 4, !tbaa !34
  %7 = load ptr, ptr %4, align 8
  %8 = getelementptr inbounds nuw %"class.cv::Size_", ptr %7, i32 0, i32 0
  %9 = load i32, ptr %5, align 4, !tbaa !34
  store i32 %9, ptr %8, align 4, !tbaa !40
  %10 = getelementptr inbounds nuw %"class.cv::Size_", ptr %7, i32 0, i32 1
  %11 = load i32, ptr %6, align 4, !tbaa !34
  store i32 %11, ptr %10, align 4, !tbaa !41
  ret void
}

; Function Attrs: mustprogress uwtable
define void @_ZN2cv8saliency25StaticSaliencyFineGrained8mixOnOffENS_3MatES2_S2_(ptr noundef nonnull align 8 dereferenceable(8) %0, ptr noundef %1, ptr noundef %2, ptr noundef %3) #4 align 2 personality ptr @__gxx_personality_v0 {
  %5 = alloca ptr, align 8
  %6 = alloca ptr, align 8
  %7 = alloca ptr, align 8
  %8 = alloca ptr, align 8
  %9 = alloca i32, align 4
  %10 = alloca i32, align 4
  %11 = alloca i32, align 4
  %12 = alloca i32, align 4
  %13 = alloca i32, align 4
  %14 = alloca i32, align 4
  %15 = alloca i32, align 4
  %16 = alloca i32, align 4
  %17 = alloca i32, align 4
  %18 = alloca %"class.cv::Mat", align 8
  %19 = alloca %"class.cv::Size_", align 4
  %20 = alloca ptr, align 8
  %21 = alloca i32, align 4
  %22 = alloca %"class.cv::_OutputArray", align 8
  store ptr %0, ptr %5, align 8, !tbaa !3
  store ptr %1, ptr %6, align 8, !tbaa !42
  store ptr %2, ptr %7, align 8, !tbaa !42
  store ptr %3, ptr %8, align 8, !tbaa !42
  call void @llvm.lifetime.start.p0(i64 4, ptr %9) #3
  call void @llvm.lifetime.start.p0(i64 4, ptr %10) #3
  call void @llvm.lifetime.start.p0(i64 4, ptr %11) #3
  %23 = getelementptr inbounds nuw %"class.cv::Mat", ptr %1, i32 0, i32 3
  %24 = load i32, ptr %23, align 4, !tbaa !24
  store i32 %24, ptr %11, align 4, !tbaa !34
  call void @llvm.lifetime.start.p0(i64 4, ptr %12) #3
  %25 = getelementptr inbounds nuw %"class.cv::Mat", ptr %1, i32 0, i32 2
  %26 = load i32, ptr %25, align 8, !tbaa !33
  store i32 %26, ptr %12, align 4, !tbaa !34
  call void @llvm.lifetime.start.p0(i64 4, ptr %13) #3
  store i32 0, ptr %13, align 4, !tbaa !34
  call void @llvm.lifetime.start.p0(i64 4, ptr %14) #3
  call void @llvm.lifetime.start.p0(i64 4, ptr %15) #3
  call void @llvm.lifetime.start.p0(i64 4, ptr %16) #3
  call void @llvm.lifetime.start.p0(i64 4, ptr %17) #3
  call void @llvm.lifetime.start.p0(i64 96, ptr %18) #3
  %27 = load i32, ptr %11, align 4, !tbaa !34
  %28 = load i32, ptr %12, align 4, !tbaa !34
  call void @_ZN2cv5Size_IiEC2Eii(ptr noundef nonnull align 4 dereferenceable(8) %19, i32 noundef %27, i32 noundef %28)
  %29 = load i64, ptr %19, align 4
  call void @_ZN2cv3MatC1ENS_5Size_IiEEi(ptr noundef nonnull align 8 dereferenceable(96) %18, i64 %29, i32 noundef 0)
  store i32 0, ptr %16, align 4, !tbaa !34
  store i32 0, ptr %17, align 4, !tbaa !34
  store i32 0, ptr %10, align 4, !tbaa !34
  br label %30

30:                                               ; preds = %72, %4
  %31 = load i32, ptr %10, align 4, !tbaa !34
  %32 = load i32, ptr %12, align 4, !tbaa !34
  %33 = icmp slt i32 %31, %32
  br i1 %33, label %34, label %75

34:                                               ; preds = %30
  store i32 0, ptr %9, align 4, !tbaa !34
  br label %35

35:                                               ; preds = %68, %34
  %36 = load i32, ptr %9, align 4, !tbaa !34
  %37 = load i32, ptr %11, align 4, !tbaa !34
  %38 = icmp slt i32 %36, %37
  br i1 %38, label %39, label %71

39:                                               ; preds = %35
  %40 = load i32, ptr %10, align 4, !tbaa !34
  %41 = load i32, ptr %9, align 4, !tbaa !34
  %42 = invoke noundef nonnull align 1 dereferenceable(1) ptr @_ZN2cv3Mat2atIhEERT_ii(ptr noundef nonnull align 8 dereferenceable(96) %1, i32 noundef %40, i32 noundef %41)
          to label %43 unwind label %57

43:                                               ; preds = %39
  %44 = load i8, ptr %42, align 1, !tbaa !61
  %45 = zext i8 %44 to i32
  store i32 %45, ptr %14, align 4, !tbaa !34
  %46 = load i32, ptr %10, align 4, !tbaa !34
  %47 = load i32, ptr %9, align 4, !tbaa !34
  %48 = invoke noundef nonnull align 1 dereferenceable(1) ptr @_ZN2cv3Mat2atIhEERT_ii(ptr noundef nonnull align 8 dereferenceable(96) %2, i32 noundef %46, i32 noundef %47)
          to label %49 unwind label %57

49:                                               ; preds = %43
  %50 = load i8, ptr %48, align 1, !tbaa !61
  %51 = zext i8 %50 to i32
  store i32 %51, ptr %15, align 4, !tbaa !34
  %52 = load i32, ptr %15, align 4, !tbaa !34
  %53 = load i32, ptr %16, align 4, !tbaa !34
  %54 = icmp sgt i32 %52, %53
  br i1 %54, label %55, label %61

55:                                               ; preds = %49
  %56 = load i32, ptr %15, align 4, !tbaa !34
  store i32 %56, ptr %16, align 4, !tbaa !34
  br label %61

57:                                               ; preds = %103, %97, %93, %43, %39
  %58 = landingpad { ptr, i32 }
          cleanup
  %59 = extractvalue { ptr, i32 } %58, 0
  store ptr %59, ptr %20, align 8
  %60 = extractvalue { ptr, i32 } %58, 1
  store i32 %60, ptr %21, align 4
  br label %138

61:                                               ; preds = %55, %49
  %62 = load i32, ptr %14, align 4, !tbaa !34
  %63 = load i32, ptr %17, align 4, !tbaa !34
  %64 = icmp sgt i32 %62, %63
  br i1 %64, label %65, label %67

65:                                               ; preds = %61
  %66 = load i32, ptr %14, align 4, !tbaa !34
  store i32 %66, ptr %17, align 4, !tbaa !34
  br label %67

67:                                               ; preds = %65, %61
  br label %68

68:                                               ; preds = %67
  %69 = load i32, ptr %9, align 4, !tbaa !34
  %70 = add nsw i32 %69, 1
  store i32 %70, ptr %9, align 4, !tbaa !34
  br label %35, !llvm.loop !75

71:                                               ; preds = %35
  br label %72

72:                                               ; preds = %71
  %73 = load i32, ptr %10, align 4, !tbaa !34
  %74 = add nsw i32 %73, 1
  store i32 %74, ptr %10, align 4, !tbaa !34
  br label %30, !llvm.loop !76

75:                                               ; preds = %30
  %76 = load i32, ptr %17, align 4, !tbaa !34
  %77 = load i32, ptr %16, align 4, !tbaa !34
  %78 = icmp sgt i32 %76, %77
  br i1 %78, label %79, label %81

79:                                               ; preds = %75
  %80 = load i32, ptr %17, align 4, !tbaa !34
  store i32 %80, ptr %13, align 4, !tbaa !34
  br label %83

81:                                               ; preds = %75
  %82 = load i32, ptr %16, align 4, !tbaa !34
  store i32 %82, ptr %13, align 4, !tbaa !34
  br label %83

83:                                               ; preds = %81, %79
  store i32 0, ptr %10, align 4, !tbaa !34
  br label %84

84:                                               ; preds = %123, %83
  %85 = load i32, ptr %10, align 4, !tbaa !34
  %86 = load i32, ptr %12, align 4, !tbaa !34
  %87 = icmp slt i32 %85, %86
  br i1 %87, label %88, label %126

88:                                               ; preds = %84
  store i32 0, ptr %9, align 4, !tbaa !34
  br label %89

89:                                               ; preds = %119, %88
  %90 = load i32, ptr %9, align 4, !tbaa !34
  %91 = load i32, ptr %11, align 4, !tbaa !34
  %92 = icmp slt i32 %90, %91
  br i1 %92, label %93, label %122

93:                                               ; preds = %89
  %94 = load i32, ptr %10, align 4, !tbaa !34
  %95 = load i32, ptr %9, align 4, !tbaa !34
  %96 = invoke noundef nonnull align 1 dereferenceable(1) ptr @_ZN2cv3Mat2atIhEERT_ii(ptr noundef nonnull align 8 dereferenceable(96) %1, i32 noundef %94, i32 noundef %95)
          to label %97 unwind label %57

97:                                               ; preds = %93
  %98 = load i8, ptr %96, align 1, !tbaa !61
  %99 = zext i8 %98 to i32
  %100 = load i32, ptr %10, align 4, !tbaa !34
  %101 = load i32, ptr %9, align 4, !tbaa !34
  %102 = invoke noundef nonnull align 1 dereferenceable(1) ptr @_ZN2cv3Mat2atIhEERT_ii(ptr noundef nonnull align 8 dereferenceable(96) %2, i32 noundef %100, i32 noundef %101)
          to label %103 unwind label %57

103:                                              ; preds = %97
  %104 = load i8, ptr %102, align 1, !tbaa !61
  %105 = zext i8 %104 to i32
  %106 = add nsw i32 %99, %105
  %107 = sitofp i32 %106 to float
  %108 = fpext float %107 to double
  %109 = fmul double 2.550000e+02, %108
  %110 = load i32, ptr %13, align 4, !tbaa !34
  %111 = sitofp i32 %110 to float
  %112 = fpext float %111 to double
  %113 = fdiv double %109, %112
  %114 = fptoui double %113 to i8
  %115 = load i32, ptr %10, align 4, !tbaa !34
  %116 = load i32, ptr %9, align 4, !tbaa !34
  %117 = invoke noundef nonnull align 1 dereferenceable(1) ptr @_ZN2cv3Mat2atIhEERT_ii(ptr noundef nonnull align 8 dereferenceable(96) %18, i32 noundef %115, i32 noundef %116)
          to label %118 unwind label %57

118:                                              ; preds = %103
  store i8 %114, ptr %117, align 1, !tbaa !61
  br label %119

119:                                              ; preds = %118
  %120 = load i32, ptr %9, align 4, !tbaa !34
  %121 = add nsw i32 %120, 1
  store i32 %121, ptr %9, align 4, !tbaa !34
  br label %89, !llvm.loop !77

122:                                              ; preds = %89
  br label %123

123:                                              ; preds = %122
  %124 = load i32, ptr %10, align 4, !tbaa !34
  %125 = add nsw i32 %124, 1
  store i32 %125, ptr %10, align 4, !tbaa !34
  br label %84, !llvm.loop !78

126:                                              ; preds = %84
  call void @llvm.lifetime.start.p0(i64 24, ptr %22) #3
  invoke void @_ZN2cv12_OutputArrayC2ERNS_3MatE(ptr noundef nonnull align 8 dereferenceable(24) %22, ptr noundef nonnull align 8 dereferenceable(96) %3)
          to label %127 unwind label %129

127:                                              ; preds = %126
  invoke void @_ZNK2cv3Mat6copyToERKNS_12_OutputArrayE(ptr noundef nonnull align 8 dereferenceable(96) %18, ptr noundef nonnull align 8 dereferenceable(24) %22)
          to label %128 unwind label %133

128:                                              ; preds = %127
  call void @_ZN2cv11_InputArrayD2Ev(ptr noundef nonnull align 8 dereferenceable(24) %22) #3
  call void @llvm.lifetime.end.p0(i64 24, ptr %22) #3
  call void @_ZN2cv3MatD1Ev(ptr noundef nonnull align 8 dereferenceable(96) %18) #3
  call void @llvm.lifetime.end.p0(i64 96, ptr %18) #3
  call void @llvm.lifetime.end.p0(i64 4, ptr %17) #3
  call void @llvm.lifetime.end.p0(i64 4, ptr %16) #3
  call void @llvm.lifetime.end.p0(i64 4, ptr %15) #3
  call void @llvm.lifetime.end.p0(i64 4, ptr %14) #3
  call void @llvm.lifetime.end.p0(i64 4, ptr %13) #3
  call void @llvm.lifetime.end.p0(i64 4, ptr %12) #3
  call void @llvm.lifetime.end.p0(i64 4, ptr %11) #3
  call void @llvm.lifetime.end.p0(i64 4, ptr %10) #3
  call void @llvm.lifetime.end.p0(i64 4, ptr %9) #3
  ret void

129:                                              ; preds = %126
  %130 = landingpad { ptr, i32 }
          cleanup
  %131 = extractvalue { ptr, i32 } %130, 0
  store ptr %131, ptr %20, align 8
  %132 = extractvalue { ptr, i32 } %130, 1
  store i32 %132, ptr %21, align 4
  br label %137

133:                                              ; preds = %127
  %134 = landingpad { ptr, i32 }
          cleanup
  %135 = extractvalue { ptr, i32 } %134, 0
  store ptr %135, ptr %20, align 8
  %136 = extractvalue { ptr, i32 } %134, 1
  store i32 %136, ptr %21, align 4
  call void @_ZN2cv11_InputArrayD2Ev(ptr noundef nonnull align 8 dereferenceable(24) %22) #3
  br label %137

137:                                              ; preds = %133, %129
  call void @llvm.lifetime.end.p0(i64 24, ptr %22) #3
  br label %138

138:                                              ; preds = %137, %57
  call void @_ZN2cv3MatD1Ev(ptr noundef nonnull align 8 dereferenceable(96) %18) #3
  call void @llvm.lifetime.end.p0(i64 96, ptr %18) #3
  call void @llvm.lifetime.end.p0(i64 4, ptr %17) #3
  call void @llvm.lifetime.end.p0(i64 4, ptr %16) #3
  call void @llvm.lifetime.end.p0(i64 4, ptr %15) #3
  call void @llvm.lifetime.end.p0(i64 4, ptr %14) #3
  call void @llvm.lifetime.end.p0(i64 4, ptr %13) #3
  call void @llvm.lifetime.end.p0(i64 4, ptr %12) #3
  call void @llvm.lifetime.end.p0(i64 4, ptr %11) #3
  call void @llvm.lifetime.end.p0(i64 4, ptr %10) #3
  call void @llvm.lifetime.end.p0(i64 4, ptr %9) #3
  br label %139

139:                                              ; preds = %138
  %140 = load ptr, ptr %20, align 8
  %141 = load i32, ptr %21, align 4
  %142 = insertvalue { ptr, i32 } poison, ptr %140, 0
  %143 = insertvalue { ptr, i32 } %142, i32 %141, 1
  resume { ptr, i32 } %143
}