; Function Attrs: mustprogress uwtable
define void @_ZN2cv8saliency25StaticSaliencyFineGrained8mixOnOffENS_3MatES2_S2_(ptr nonnull readnone align 8 captures(none) %0, ptr noundef readonly captures(none) %1, ptr noundef readonly captures(none) %2, ptr noundef %3) local_unnamed_addr #3 align 2 personality ptr @__gxx_personality_v0 {
  %5 = alloca %"class.cv::Mat", align 8
  %6 = alloca %"class.cv::_OutputArray", align 8
  %7 = getelementptr inbounds nuw i8, ptr %1, i64 12
  %8 = load i32, ptr %7, align 4, !tbaa !22
  %9 = getelementptr inbounds nuw i8, ptr %1, i64 8
  %10 = load i32, ptr %9, align 8, !tbaa !33
  call void @llvm.lifetime.start.p0(i64 96, ptr nonnull %5) #16
  %.sroa.2.0.insert.ext = zext i32 %10 to i64
  %.sroa.2.0.insert.shift = shl nuw i64 %.sroa.2.0.insert.ext, 32
  %.sroa.0.0.insert.ext = zext i32 %8 to i64
  %.sroa.0.0.insert.insert = or disjoint i64 %.sroa.2.0.insert.shift, %.sroa.0.0.insert.ext
  call void @_ZN2cv3MatC1ENS_5Size_IiEEi(ptr noundef nonnull align 8 dereferenceable(96) %5, i64 %.sroa.0.0.insert.insert, i32 noundef 0)
  %11 = icmp sgt i32 %10, 0
  %12 = icmp sgt i32 %8, 0
  %or.cond = select i1 %11, i1 %12, i1 false
  br i1 %or.cond, label %.preheader50.lr.ph.split.us, label %._crit_edge64

.preheader50.lr.ph.split.us:                      ; preds = %4
  %13 = getelementptr inbounds nuw i8, ptr %2, i64 72
  %14 = getelementptr inbounds nuw i8, ptr %2, i64 16
  %15 = getelementptr inbounds nuw i8, ptr %1, i64 72
  %16 = getelementptr inbounds nuw i8, ptr %1, i64 16
  %17 = load ptr, ptr %16, align 8, !tbaa !55
  %18 = load ptr, ptr %15, align 8, !tbaa !56
  %19 = load i64, ptr %18, align 8, !tbaa !57
  %20 = load ptr, ptr %14, align 8, !tbaa !55
  %21 = load ptr, ptr %13, align 8, !tbaa !56
  %22 = load i64, ptr %21, align 8, !tbaa !57
  br label %.preheader50.us

.preheader50.us:                                  ; preds = %._crit_edge.us, %.preheader50.lr.ph.split.us
  %indvars.iv69 = phi i64 [ %indvars.iv.next70, %._crit_edge.us ], [ 0, %.preheader50.lr.ph.split.us ]
  %.03757.us = phi i32 [ %.2.us, %._crit_edge.us ], [ 0, %.preheader50.lr.ph.split.us ]
  %.03856.us = phi i32 [ %spec.select.us, %._crit_edge.us ], [ 0, %.preheader50.lr.ph.split.us ]
  %23 = mul i64 %19, %indvars.iv69
  %24 = getelementptr inbounds nuw i8, ptr %17, i64 %23
  %25 = mul i64 %22, %indvars.iv69
  %26 = getelementptr inbounds nuw i8, ptr %20, i64 %25
  br label %27

27:                                               ; preds = %.preheader50.us, %27
  %indvars.iv = phi i64 [ 0, %.preheader50.us ], [ %indvars.iv.next, %27 ]
  %.153.us = phi i32 [ %.03757.us, %.preheader50.us ], [ %.2.us, %27 ]
  %.13952.us = phi i32 [ %.03856.us, %.preheader50.us ], [ %spec.select.us, %27 ]
  %28 = getelementptr inbounds nuw i8, ptr %24, i64 %indvars.iv
  %29 = load i8, ptr %28, align 1, !tbaa !14
  %30 = zext i8 %29 to i32
  %31 = getelementptr inbounds nuw i8, ptr %26, i64 %indvars.iv
  %32 = load i8, ptr %31, align 1, !tbaa !14
  %33 = zext i8 %32 to i32
  %spec.select.us = call i32 @llvm.umax.i32(i32 %.13952.us, i32 %33)
  %.2.us = call i32 @llvm.umax.i32(i32 %.153.us, i32 %30)
  %indvars.iv.next = add nuw nsw i64 %indvars.iv, 1
  %exitcond.not = icmp eq i64 %indvars.iv.next, %.sroa.0.0.insert.ext
  br i1 %exitcond.not, label %._crit_edge.us, label %27, !llvm.loop !72

._crit_edge.us:                                   ; preds = %27
  %indvars.iv.next70 = add nuw nsw i64 %indvars.iv69, 1
  %exitcond73.not = icmp eq i64 %indvars.iv.next70, %.sroa.2.0.insert.ext
  br i1 %exitcond73.not, label %._crit_edge58, label %.preheader50.us, !llvm.loop !73

._crit_edge58:                                    ; preds = %._crit_edge.us
  br i1 %11, label %.preheader.lr.ph, label %._crit_edge64

.preheader.lr.ph:                                 ; preds = %._crit_edge58
  %.037..038 = call i32 @llvm.smax.i32(i32 %.2.us, i32 %spec.select.us)
  %34 = getelementptr inbounds nuw i8, ptr %1, i64 16
  %35 = getelementptr inbounds nuw i8, ptr %1, i64 72
  %36 = getelementptr inbounds nuw i8, ptr %2, i64 16
  %37 = getelementptr inbounds nuw i8, ptr %2, i64 72
  %38 = uitofp nneg i32 %.037..038 to float
  %39 = fpext float %38 to double
  %40 = getelementptr inbounds nuw i8, ptr %5, i64 16
  %41 = getelementptr inbounds nuw i8, ptr %5, i64 72
  br label %.preheader.us

.preheader.us:                                    ; preds = %.preheader.lr.ph, %._crit_edge.us65
  %indvars.iv79 = phi i64 [ %indvars.iv.next80, %._crit_edge.us65 ], [ 0, %.preheader.lr.ph ]
  br label %42

42:                                               ; preds = %.preheader.us, %42
  %indvars.iv74 = phi i64 [ 0, %.preheader.us ], [ %indvars.iv.next75, %42 ]
  %43 = load ptr, ptr %34, align 8, !tbaa !55
  %44 = load ptr, ptr %35, align 8, !tbaa !56
  %45 = load i64, ptr %44, align 8, !tbaa !57
  %46 = mul i64 %45, %indvars.iv79
  %47 = getelementptr inbounds nuw i8, ptr %43, i64 %46
  %48 = getelementptr inbounds nuw i8, ptr %47, i64 %indvars.iv74
  %49 = load i8, ptr %48, align 1, !tbaa !14
  %50 = zext i8 %49 to i32
  %51 = load ptr, ptr %36, align 8, !tbaa !55
  %52 = load ptr, ptr %37, align 8, !tbaa !56
  %53 = load i64, ptr %52, align 8, !tbaa !57
  %54 = mul i64 %53, %indvars.iv79
  %55 = getelementptr inbounds nuw i8, ptr %51, i64 %54
  %56 = getelementptr inbounds nuw i8, ptr %55, i64 %indvars.iv74
  %57 = load i8, ptr %56, align 1, !tbaa !14
  %58 = zext i8 %57 to i32
  %59 = add nuw nsw i32 %58, %50
  %60 = mul nuw nsw i32 %59, 255
  %61 = uitofp nneg i32 %60 to double
  %62 = fdiv double %61, %39
  %63 = fptoui double %62 to i8
  %64 = load ptr, ptr %40, align 8, !tbaa !55
  %65 = load ptr, ptr %41, align 8, !tbaa !56
  %66 = load i64, ptr %65, align 8, !tbaa !57
  %67 = mul i64 %66, %indvars.iv79
  %68 = getelementptr inbounds nuw i8, ptr %64, i64 %67
  %69 = getelementptr inbounds nuw i8, ptr %68, i64 %indvars.iv74
  store i8 %63, ptr %69, align 1, !tbaa !14
  %indvars.iv.next75 = add nuw nsw i64 %indvars.iv74, 1
  %exitcond78.not = icmp eq i64 %indvars.iv.next75, %.sroa.0.0.insert.ext
  br i1 %exitcond78.not, label %._crit_edge.us65, label %42, !llvm.loop !74

._crit_edge.us65:                                 ; preds = %42
  %indvars.iv.next80 = add nuw nsw i64 %indvars.iv79, 1
  %exitcond83.not = icmp eq i64 %indvars.iv.next80, %.sroa.2.0.insert.ext
  br i1 %exitcond83.not, label %._crit_edge64, label %.preheader.us, !llvm.loop !75

._crit_edge64:                                    ; preds = %._crit_edge.us65, %4, %._crit_edge58
  call void @llvm.lifetime.start.p0(i64 24, ptr nonnull %6) #16
  %70 = getelementptr inbounds nuw i8, ptr %6, i64 8
  %71 = getelementptr inbounds nuw i8, ptr %6, i64 16
  store i64 0, ptr %71, align 8
  store i32 33619968, ptr %6, align 8, !tbaa !52
  store ptr %3, ptr %70, align 8, !tbaa !18
  invoke void @_ZNK2cv3Mat6copyToERKNS_12_OutputArrayE(ptr noundef nonnull align 8 dereferenceable(96) %5, ptr noundef nonnull align 8 dereferenceable(24) %6)
          to label %72 unwind label %73

72:                                               ; preds = %._crit_edge64
  call void @llvm.lifetime.end.p0(i64 24, ptr nonnull %6) #16
  call void @_ZN2cv3MatD1Ev(ptr noundef nonnull align 8 dereferenceable(96) %5) #16
  call void @llvm.lifetime.end.p0(i64 96, ptr nonnull %5) #16
  ret void

73:                                               ; preds = %._crit_edge64
  %74 = landingpad { ptr, i32 }
          cleanup
  call void @llvm.lifetime.end.p0(i64 24, ptr nonnull %6) #16
  call void @_ZN2cv3MatD1Ev(ptr noundef nonnull align 8 dereferenceable(96) %5) #16
  call void @llvm.lifetime.end.p0(i64 96, ptr nonnull %5) #16
  resume { ptr, i32 } %74
}